; ModuleID = '5/214.c'
source_filename = "5/214.c"
target datalayout = "e-m:e-p270:32:32-p271:32:32-p272:64:64-i64:64-f80:128-n8:16:32:64-S128"
target triple = "x86_64-pc-linux-gnu"

@.str = private unnamed_addr constant [4 x i8] c"%lf\00", align 1
@.str.1 = private unnamed_addr constant [3 x i8] c"%s\00", align 1
@.str.2 = private unnamed_addr constant [6 x i8] c"error\00", align 1
@.str.3 = private unnamed_addr constant [4 x i8] c"yes\00", align 1
@.str.4 = private unnamed_addr constant [3 x i8] c"no\00", align 1

; Function Attrs: noinline nounwind uwtable
define dso_local i32 @main() #0 {
  %1 = alloca i32, align 4
  %2 = alloca i32, align 4
  %3 = alloca i32, align 4
  %4 = alloca [2 x i32], align 4
  %5 = alloca i32, align 4
  %6 = alloca [2 x [501 x i8]], align 16
  %7 = alloca double, align 8
  store i32 0, i32* %1, align 4
  store i32 0, i32* %5, align 4
  %8 = call i32 (i8*, ...) @__isoc99_scanf(i8* getelementptr inbounds ([4 x i8], [4 x i8]* @.str, i64 0, i64 0), double* %7)
  store i32 0, i32* %2, align 4
  br label %9

9:                                                ; preds = %18, %0
  %10 = load i32, i32* %2, align 4
  %11 = icmp slt i32 %10, 2
  br i1 %11, label %12, label %21

12:                                               ; preds = %9
  %13 = load i32, i32* %2, align 4
  %14 = sext i32 %13 to i64
  %15 = getelementptr inbounds [2 x [501 x i8]], [2 x [501 x i8]]* %6, i64 0, i64 %14
  %16 = getelementptr inbounds [501 x i8], [501 x i8]* %15, i64 0, i64 0
  %17 = call i32 (i8*, ...) @__isoc99_scanf(i8* getelementptr inbounds ([3 x i8], [3 x i8]* @.str.1, i64 0, i64 0), i8* %16)
  br label %18

18:                                               ; preds = %12
  %19 = load i32, i32* %2, align 4
  %20 = add nsw i32 %19, 1
  store i32 %20, i32* %2, align 4
  br label %9

21:                                               ; preds = %9
  %22 = getelementptr inbounds [2 x [501 x i8]], [2 x [501 x i8]]* %6, i64 0, i64 0
  %23 = getelementptr inbounds [501 x i8], [501 x i8]* %22, i64 0, i64 0
  %24 = call i64 @strlen(i8* %23) #3
  %25 = trunc i64 %24 to i32
  %26 = getelementptr inbounds [2 x i32], [2 x i32]* %4, i64 0, i64 0
  store i32 %25, i32* %26, align 4
  %27 = getelementptr inbounds [2 x [501 x i8]], [2 x [501 x i8]]* %6, i64 0, i64 1
  %28 = getelementptr inbounds [501 x i8], [501 x i8]* %27, i64 0, i64 0
  %29 = call i64 @strlen(i8* %28) #3
  %30 = trunc i64 %29 to i32
  %31 = getelementptr inbounds [2 x i32], [2 x i32]* %4, i64 0, i64 1
  store i32 %30, i32* %31, align 4
  %32 = getelementptr inbounds [2 x i32], [2 x i32]* %4, i64 0, i64 0
  %33 = load i32, i32* %32, align 4
  %34 = getelementptr inbounds [2 x i32], [2 x i32]* %4, i64 0, i64 1
  %35 = load i32, i32* %34, align 4
  %36 = icmp ne i32 %33, %35
  br i1 %36, label %37, label %39

37:                                               ; preds = %21
  %38 = call i32 (i8*, ...) @printf(i8* getelementptr inbounds ([6 x i8], [6 x i8]* @.str.2, i64 0, i64 0))
  store i32 0, i32* %1, align 4
  br label %144

39:                                               ; preds = %21
  store i32 0, i32* %2, align 4
  br label %40

40:                                               ; preds = %99, %39
  %41 = load i32, i32* %2, align 4
  %42 = icmp slt i32 %41, 2
  br i1 %42, label %43, label %102

43:                                               ; preds = %40
  store i32 0, i32* %3, align 4
  br label %44

44:                                               ; preds = %95, %43
  %45 = load i32, i32* %3, align 4
  %46 = load i32, i32* %2, align 4
  %47 = sext i32 %46 to i64
  %48 = getelementptr inbounds [2 x i32], [2 x i32]* %4, i64 0, i64 %47
  %49 = load i32, i32* %48, align 4
  %50 = sub nsw i32 %49, 1
  %51 = icmp slt i32 %45, %50
  br i1 %51, label %52, label %98

52:                                               ; preds = %44
  %53 = load i32, i32* %2, align 4
  %54 = sext i32 %53 to i64
  %55 = getelementptr inbounds [2 x [501 x i8]], [2 x [501 x i8]]* %6, i64 0, i64 %54
  %56 = load i32, i32* %3, align 4
  %57 = sext i32 %56 to i64
  %58 = getelementptr inbounds [501 x i8], [501 x i8]* %55, i64 0, i64 %57
  %59 = load i8, i8* %58, align 1
  %60 = sext i8 %59 to i32
  %61 = icmp ne i32 %60, 65
  br i1 %61, label %62, label %94

62:                                               ; preds = %52
  %63 = load i32, i32* %2, align 4
  %64 = sext i32 %63 to i64
  %65 = getelementptr inbounds [2 x [501 x i8]], [2 x [501 x i8]]* %6, i64 0, i64 %64
  %66 = load i32, i32* %3, align 4
  %67 = sext i32 %66 to i64
  %68 = getelementptr inbounds [501 x i8], [501 x i8]* %65, i64 0, i64 %67
  %69 = load i8, i8* %68, align 1
  %70 = sext i8 %69 to i32
  %71 = icmp ne i32 %70, 84
  br i1 %71, label %72, label %94

72:                                               ; preds = %62
  %73 = load i32, i32* %2, align 4
  %74 = sext i32 %73 to i64
  %75 = getelementptr inbounds [2 x [501 x i8]], [2 x [501 x i8]]* %6, i64 0, i64 %74
  %76 = load i32, i32* %3, align 4
  %77 = sext i32 %76 to i64
  %78 = getelementptr inbounds [501 x i8], [501 x i8]* %75, i64 0, i64 %77
  %79 = load i8, i8* %78, align 1
  %80 = sext i8 %79 to i32
  %81 = icmp ne i32 %80, 71
  br i1 %81, label %82, label %94

82:                                               ; preds = %72
  %83 = load i32, i32* %2, align 4
  %84 = sext i32 %83 to i64
  %85 = getelementptr inbounds [2 x [501 x i8]], [2 x [501 x i8]]* %6, i64 0, i64 %84
  %86 = load i32, i32* %3, align 4
  %87 = sext i32 %86 to i64
  %88 = getelementptr inbounds [501 x i8], [501 x i8]* %85, i64 0, i64 %87
  %89 = load i8, i8* %88, align 1
  %90 = sext i8 %89 to i32
  %91 = icmp ne i32 %90, 67
  br i1 %91, label %92, label %94

92:                                               ; preds = %82
  %93 = call i32 (i8*, ...) @printf(i8* getelementptr inbounds ([6 x i8], [6 x i8]* @.str.2, i64 0, i64 0))
  store i32 0, i32* %1, align 4
  br label %144

94:                                               ; preds = %82, %72, %62, %52
  br label %95

95:                                               ; preds = %94
  %96 = load i32, i32* %3, align 4
  %97 = add nsw i32 %96, 1
  store i32 %97, i32* %3, align 4
  br label %44

98:                                               ; preds = %44
  br label %99

99:                                               ; preds = %98
  %100 = load i32, i32* %2, align 4
  %101 = add nsw i32 %100, 1
  store i32 %101, i32* %2, align 4
  br label %40

102:                                              ; preds = %40
  store i32 0, i32* %3, align 4
  br label %103

103:                                              ; preds = %126, %102
  %104 = load i32, i32* %3, align 4
  %105 = getelementptr inbounds [2 x i32], [2 x i32]* %4, i64 0, i64 0
  %106 = load i32, i32* %105, align 4
  %107 = icmp slt i32 %104, %106
  br i1 %107, label %108, label %129

108:                                              ; preds = %103
  %109 = getelementptr inbounds [2 x [501 x i8]], [2 x [501 x i8]]* %6, i64 0, i64 0
  %110 = load i32, i32* %3, align 4
  %111 = sext i32 %110 to i64
  %112 = getelementptr inbounds [501 x i8], [501 x i8]* %109, i64 0, i64 %111
  %113 = load i8, i8* %112, align 1
  %114 = sext i8 %113 to i32
  %115 = getelementptr inbounds [2 x [501 x i8]], [2 x [501 x i8]]* %6, i64 0, i64 1
  %116 = load i32, i32* %3, align 4
  %117 = sext i32 %116 to i64
  %118 = getelementptr inbounds [501 x i8], [501 x i8]* %115, i64 0, i64 %117
  %119 = load i8, i8* %118, align 1
  %120 = sext i8 %119 to i32
  %121 = icmp eq i32 %114, %120
  br i1 %121, label %122, label %125

122:                                              ; preds = %108
  %123 = load i32, i32* %5, align 4
  %124 = add nsw i32 %123, 1
  store i32 %124, i32* %5, align 4
  br label %125

125:                                              ; preds = %122, %108
  br label %126

126:                                              ; preds = %125
  %127 = load i32, i32* %3, align 4
  %128 = add nsw i32 %127, 1
  store i32 %128, i32* %3, align 4
  br label %103

129:                                              ; preds = %103
  %130 = load i32, i32* %5, align 4
  %131 = sitofp i32 %130 to double
  %132 = fmul double 1.000000e+00, %131
  %133 = getelementptr inbounds [2 x i32], [2 x i32]* %4, i64 0, i64 0
  %134 = load i32, i32* %133, align 4
  %135 = sitofp i32 %134 to double
  %136 = fdiv double %132, %135
  %137 = load double, double* %7, align 8
  %138 = fcmp ogt double %136, %137
  br i1 %138, label %139, label %141

139:                                              ; preds = %129
  %140 = call i32 (i8*, ...) @printf(i8* getelementptr inbounds ([4 x i8], [4 x i8]* @.str.3, i64 0, i64 0))
  br label %143

141:                                              ; preds = %129
  %142 = call i32 (i8*, ...) @printf(i8* getelementptr inbounds ([3 x i8], [3 x i8]* @.str.4, i64 0, i64 0))
  br label %143

143:                                              ; preds = %141, %139
  store i32 0, i32* %1, align 4
  br label %144

144:                                              ; preds = %143, %92, %37
  %145 = load i32, i32* %1, align 4
  ret i32 %145
}

declare dso_local i32 @__isoc99_scanf(i8*, ...) #1

; Function Attrs: nounwind readonly
declare dso_local i64 @strlen(i8*) #2

declare dso_local i32 @printf(i8*, ...) #1


!llvm.module.flags = !{!0}
!llvm.ident = !{!1}

!0 = !{i32 1, !"wchar_size", i32 4}
!1 = !{!"clang version 10.0.0-4ubuntu1 "}
